; Function Attrs: mustprogress nofree norecurse nosync nounwind willreturn memory(read, inaccessiblemem: none) uwtable
define dso_local noundef i32 @_ZNK4llvm5APInt15nearestLogBase2Ev(ptr noundef nonnull readonly align 8 captures(none) dereferenceable(12) %0) local_unnamed_addr #3 align 2 {
  %2 = getelementptr inbounds nuw i8, ptr %0, i64 8
  %3 = load i32, ptr %2, align 8
  %4 = icmp eq i32 %3, 1
  br i1 %4, label %5, label %9

5:                                                ; preds = %1
  %6 = load i64, ptr %0, align 8
  %7 = trunc i64 %6 to i32
  %8 = add i32 %7, -1
  br label %63

9:                                                ; preds = %1
  %10 = icmp ult i32 %3, 65
  br i1 %10, label %11, label %.lr.ph.i.i

11:                                               ; preds = %9
  %12 = load i64, ptr %0, align 8
  %13 = icmp eq i64 %12, 0
  br i1 %13, label %63, label %.thread

.lr.ph.i.i:                                       ; preds = %9
  %14 = zext i32 %3 to i64
  %15 = add nuw nsw i64 %14, 63
  %16 = lshr i64 %15, 6
  %17 = load ptr, ptr %0, align 8
  br label %18

18:                                               ; preds = %23, %.lr.ph.i.i
  %indvars.iv.i = phi i64 [ %indvars.iv.next.i, %23 ], [ %16, %.lr.ph.i.i ]
  %.016.i.i = phi i32 [ %24, %23 ], [ 0, %.lr.ph.i.i ]
  %indvars.iv.next.i = add nsw i64 %indvars.iv.i, -1
  %19 = and i64 %indvars.iv.next.i, 4294967295
  %20 = getelementptr inbounds nuw i64, ptr %17, i64 %19
  %21 = load i64, ptr %20, align 8
  %22 = icmp eq i64 %21, 0
  br i1 %22, label %23, label %26

23:                                               ; preds = %18
  %24 = add i32 %.016.i.i, 64
  %25 = icmp samesign ugt i64 %indvars.iv.i, 1
  br i1 %25, label %18, label %_ZNK4llvm5APInt6isZeroEv.exit, !llvm.loop !9

26:                                               ; preds = %18
  %27 = tail call range(i64 0, 65) i64 @llvm.ctlz.i64(i64 %21, i1 true)
  %28 = trunc nuw nsw i64 %27 to i32
  %29 = or disjoint i32 %.016.i.i, %28
  br label %_ZNK4llvm5APInt6isZeroEv.exit

_ZNK4llvm5APInt6isZeroEv.exit:                    ; preds = %23, %26
  %.1.i.i = phi i32 [ %29, %26 ], [ %24, %23 ]
  %30 = and i32 %3, 63
  %.not.i.i = icmp eq i32 %30, 0
  %.neg.i.i = or i32 %3, -64
  %.neg13.i.i = select i1 %.not.i.i, i32 0, i32 %.neg.i.i
  %31 = add i32 %.1.i.i, %.neg13.i.i
  %32 = icmp eq i32 %31, %3
  br i1 %32, label %63, label %.lr.ph.i.i.i.i

.thread:                                          ; preds = %11
  %33 = inttoptr i64 %12 to ptr
  %.neg.i.i.i = add nsw i32 %3, -64
  %34 = tail call range(i64 0, 65) i64 @llvm.ctlz.i64(i64 %12, i1 true)
  %35 = trunc nuw nsw i64 %34 to i32
  %36 = add nsw i32 %.neg.i.i.i, %35
  br label %_ZNK4llvm5APInt8logBase2Ev.exit

.lr.ph.i.i.i.i:                                   ; preds = %_ZNK4llvm5APInt6isZeroEv.exit, %41
  %indvars.iv.i.i.i = phi i64 [ %indvars.iv.next.i.i.i, %41 ], [ %16, %_ZNK4llvm5APInt6isZeroEv.exit ]
  %.016.i.i.i.i = phi i32 [ %42, %41 ], [ 0, %_ZNK4llvm5APInt6isZeroEv.exit ]
  %indvars.iv.next.i.i.i = add nsw i64 %indvars.iv.i.i.i, -1
  %37 = and i64 %indvars.iv.next.i.i.i, 4294967295
  %38 = getelementptr inbounds nuw i64, ptr %17, i64 %37
  %39 = load i64, ptr %38, align 8
  %40 = icmp eq i64 %39, 0
  br i1 %40, label %41, label %44

41:                                               ; preds = %.lr.ph.i.i.i.i
  %42 = add i32 %.016.i.i.i.i, 64
  %43 = icmp samesign ugt i64 %indvars.iv.i.i.i, 1
  br i1 %43, label %.lr.ph.i.i.i.i, label %_ZNK4llvm5APInt25countLeadingZerosSlowCaseEv.exit.i.i.i, !llvm.loop !9

44:                                               ; preds = %.lr.ph.i.i.i.i
  %45 = tail call range(i64 0, 65) i64 @llvm.ctlz.i64(i64 %39, i1 true)
  %46 = trunc nuw nsw i64 %45 to i32
  %47 = or disjoint i32 %.016.i.i.i.i, %46
  br label %_ZNK4llvm5APInt25countLeadingZerosSlowCaseEv.exit.i.i.i

_ZNK4llvm5APInt25countLeadingZerosSlowCaseEv.exit.i.i.i: ; preds = %41, %44
  %.1.i.i.i.i = phi i32 [ %47, %44 ], [ %42, %41 ]
  %48 = add i32 %.1.i.i.i.i, %.neg13.i.i
  br label %_ZNK4llvm5APInt8logBase2Ev.exit

_ZNK4llvm5APInt8logBase2Ev.exit:                  ; preds = %.thread, %_ZNK4llvm5APInt25countLeadingZerosSlowCaseEv.exit.i.i.i
  %49 = phi ptr [ %33, %.thread ], [ %17, %_ZNK4llvm5APInt25countLeadingZerosSlowCaseEv.exit.i.i.i ]
  %.0.i.i.i = phi i32 [ %36, %.thread ], [ %48, %_ZNK4llvm5APInt25countLeadingZerosSlowCaseEv.exit.i.i.i ]
  %50 = xor i32 %.0.i.i.i, -1
  %51 = add i32 %3, %50
  %52 = add i32 %51, -1
  %53 = and i32 %52, 63
  %54 = zext nneg i32 %53 to i64
  %55 = lshr i32 %52, 6
  %56 = zext nneg i32 %55 to i64
  %57 = getelementptr inbounds nuw i64, ptr %49, i64 %56
  %.in.i.i = select i1 %10, ptr %0, ptr %57
  %58 = load i64, ptr %.in.i.i, align 8
  %59 = lshr i64 %58, %54
  %60 = trunc i64 %59 to i32
  %61 = and i32 %60, 1
  %62 = add i32 %61, %51
  br label %63

63:                                               ; preds = %11, %_ZNK4llvm5APInt6isZeroEv.exit, %_ZNK4llvm5APInt8logBase2Ev.exit, %5
  %.0 = phi i32 [ %8, %5 ], [ %62, %_ZNK4llvm5APInt8logBase2Ev.exit ], [ -1, %_ZNK4llvm5APInt6isZeroEv.exit ], [ -1, %11 ]
  ret i32 %.0
}